target datalayout = "e-m:e-p270:32:32-p271:32:32-p272:64:64-i64:64-i128:128-f80:128-n8:16:32:64-S128"
target triple = "x86_64-pc-linux-gnu"

%struct.AVPacket = type { ptr, i64, i64, ptr, i32, i32, i32, ptr, i32, i64, i64, ptr, ptr, %struct.AVRational }
%struct.AVRational = type { i32, i32 }
%struct.AVStream = type { ptr, i32, i32, ptr, ptr, %struct.AVRational, i64, i64, i64, i32, i32, %struct.AVRational, ptr, %struct.AVRational, %struct.AVPacket, i32, %struct.AVRational, i32 }
%struct.AVFormatContext = type { ptr, ptr, ptr, ptr, ptr, i32, i32, ptr, i32, ptr, i32, ptr, ptr, i64, i64, i64, i32, i32, i32, i64, i64, ptr, i32, i32, ptr, i32, i32, i32, i32, ptr, i64, i32, i32, %struct.AVIOInterruptCB, i32, i32, i32, i32, i64, i32, i32, i32, i32, i32, i32, i32, i32, i32, i32, i32, i32, i64, i32, i32, i32, i32, i32, ptr, ptr, ptr, ptr, i32, ptr, ptr, ptr, ptr, i32, ptr, ptr, i64, ptr, ptr, ptr, i64 }
%struct.AVIOInterruptCB = type { ptr, ptr }

@.str.32 = private unnamed_addr constant [46 x i8] c"Invalid stream index %d for index at pos %ld\0A\00", align 1
@.str.33 = private unnamed_addr constant [88 x i8] c"Nr. of packets in packet index for stream index %d exceeds filesize (%ld at %ld = %ld)\0A\00", align 1
@.str.34 = private unnamed_addr constant [42 x i8] c"Non-linear index detected, not supported\0A\00", align 1

; Function Attrs: alwaysinline nounwind uwtable
define internal i64 @avio_tell(ptr noundef %0) #3 {
  %2 = alloca ptr, align 8
  store ptr %0, ptr %2, align 8, !tbaa !20
  %3 = load ptr, ptr %2, align 8, !tbaa !20
  %4 = call i64 @avio_seek(ptr noundef %3, i64 noundef 0, i32 noundef 1)
  ret i64 %4
}

; Function Attrs: nounwind uwtable
define internal i32 @rm_read_index(ptr noundef %0) #0 {
  %2 = alloca i32, align 4
  %3 = alloca ptr, align 8
  %4 = alloca ptr, align 8
  %5 = alloca i32, align 4
  %6 = alloca i32, align 4
  %7 = alloca i32, align 4
  %8 = alloca i32, align 4
  %9 = alloca i32, align 4
  %10 = alloca i32, align 4
  %11 = alloca i32, align 4
  %12 = alloca i64, align 8
  %13 = alloca ptr, align 8
  %14 = alloca i32, align 4
  store ptr %0, ptr %3, align 8, !tbaa !18
  call void @llvm.lifetime.start.p0(i64 8, ptr %4) #10
  %15 = load ptr, ptr %3, align 8, !tbaa !18
  %16 = getelementptr inbounds nuw %struct.AVFormatContext, ptr %15, i32 0, i32 4
  %17 = load ptr, ptr %16, align 8, !tbaa !122
  store ptr %17, ptr %4, align 8, !tbaa !20
  call void @llvm.lifetime.start.p0(i64 4, ptr %5) #10
  call void @llvm.lifetime.start.p0(i64 4, ptr %6) #10
  call void @llvm.lifetime.start.p0(i64 4, ptr %7) #10
  call void @llvm.lifetime.start.p0(i64 4, ptr %8) #10
  call void @llvm.lifetime.start.p0(i64 4, ptr %9) #10
  call void @llvm.lifetime.start.p0(i64 4, ptr %10) #10
  call void @llvm.lifetime.start.p0(i64 4, ptr %11) #10
  call void @llvm.lifetime.start.p0(i64 8, ptr %12) #10
  call void @llvm.lifetime.start.p0(i64 8, ptr %13) #10
  br label %18

18:                                               ; preds = %171, %1
  %19 = load ptr, ptr %4, align 8, !tbaa !20
  %20 = call i32 @avio_rl32(ptr noundef %19)
  %21 = icmp ne i32 %20, 1480871497
  br i1 %21, label %22, label %23

22:                                               ; preds = %18
  store i32 -1, ptr %2, align 4
  store i32 1, ptr %14, align 4
  br label %175

23:                                               ; preds = %18
  %24 = load ptr, ptr %4, align 8, !tbaa !20
  %25 = call i32 @avio_rb32(ptr noundef %24)
  store i32 %25, ptr %5, align 4, !tbaa !24
  %26 = load i32, ptr %5, align 4, !tbaa !24
  %27 = icmp ult i32 %26, 20
  br i1 %27, label %28, label %29

28:                                               ; preds = %23
  store i32 -1, ptr %2, align 4
  store i32 1, ptr %14, align 4
  br label %175

29:                                               ; preds = %23
  %30 = load ptr, ptr %4, align 8, !tbaa !20
  %31 = call i32 @avio_rb16(ptr noundef %30)
  store i32 %31, ptr %6, align 4, !tbaa !24
  %32 = load i32, ptr %6, align 4, !tbaa !24
  %33 = icmp ne i32 %32, 0
  br i1 %33, label %34, label %38

34:                                               ; preds = %29
  %35 = load i32, ptr %6, align 4, !tbaa !24
  %36 = icmp ne i32 %35, 2
  br i1 %36, label %37, label %38

37:                                               ; preds = %34
  store i32 -1094995529, ptr %2, align 4
  store i32 1, ptr %14, align 4
  br label %175

38:                                               ; preds = %34, %29
  %39 = load ptr, ptr %4, align 8, !tbaa !20
  %40 = call i32 @avio_rb32(ptr noundef %39)
  store i32 %40, ptr %7, align 4, !tbaa !24
  %41 = load ptr, ptr %4, align 8, !tbaa !20
  %42 = call i32 @avio_rb16(ptr noundef %41)
  store i32 %42, ptr %8, align 4, !tbaa !24
  %43 = load ptr, ptr %4, align 8, !tbaa !20
  %44 = call i32 @avio_rb32(ptr noundef %43)
  store i32 %44, ptr %9, align 4, !tbaa !24
  %45 = load i32, ptr %6, align 4, !tbaa !24
  %46 = icmp eq i32 %45, 2
  br i1 %46, label %47, label %50

47:                                               ; preds = %38
  %48 = load ptr, ptr %4, align 8, !tbaa !20
  %49 = call i64 @avio_skip(ptr noundef %48, i64 noundef 4)
  br label %50

50:                                               ; preds = %47, %38
  store i32 0, ptr %10, align 4, !tbaa !24
  br label %51

51:                                               ; preds = %78, %50
  %52 = load i32, ptr %10, align 4, !tbaa !24
  %53 = load ptr, ptr %3, align 8, !tbaa !18
  %54 = getelementptr inbounds nuw %struct.AVFormatContext, ptr %53, i32 0, i32 6
  %55 = load i32, ptr %54, align 4, !tbaa !134
  %56 = icmp ult i32 %52, %55
  br i1 %56, label %57, label %81

57:                                               ; preds = %51
  %58 = load ptr, ptr %3, align 8, !tbaa !18
  %59 = getelementptr inbounds nuw %struct.AVFormatContext, ptr %58, i32 0, i32 7
  %60 = load ptr, ptr %59, align 8, !tbaa !131
  %61 = load i32, ptr %10, align 4, !tbaa !24
  %62 = zext i32 %61 to i64
  %63 = getelementptr inbounds nuw ptr, ptr %60, i64 %62
  %64 = load ptr, ptr %63, align 8, !tbaa !22
  %65 = getelementptr inbounds nuw %struct.AVStream, ptr %64, i32 0, i32 2
  %66 = load i32, ptr %65, align 4, !tbaa !92
  %67 = load i32, ptr %8, align 4, !tbaa !24
  %68 = icmp eq i32 %66, %67
  br i1 %68, label %69, label %77

69:                                               ; preds = %57
  %70 = load ptr, ptr %3, align 8, !tbaa !18
  %71 = getelementptr inbounds nuw %struct.AVFormatContext, ptr %70, i32 0, i32 7
  %72 = load ptr, ptr %71, align 8, !tbaa !131
  %73 = load i32, ptr %10, align 4, !tbaa !24
  %74 = zext i32 %73 to i64
  %75 = getelementptr inbounds nuw ptr, ptr %72, i64 %74
  %76 = load ptr, ptr %75, align 8, !tbaa !22
  store ptr %76, ptr %13, align 8, !tbaa !22
  br label %81

77:                                               ; preds = %57
  br label %78

78:                                               ; preds = %77
  %79 = load i32, ptr %10, align 4, !tbaa !24
  %80 = add i32 %79, 1
  store i32 %80, ptr %10, align 4, !tbaa !24
  br label %51, !llvm.loop !146

81:                                               ; preds = %69, %51
  %82 = load i32, ptr %10, align 4, !tbaa !24
  %83 = load ptr, ptr %3, align 8, !tbaa !18
  %84 = getelementptr inbounds nuw %struct.AVFormatContext, ptr %83, i32 0, i32 6
  %85 = load i32, ptr %84, align 4, !tbaa !134
  %86 = icmp eq i32 %82, %85
  br i1 %86, label %87, label %92

87:                                               ; preds = %81
  %88 = load ptr, ptr %3, align 8, !tbaa !18
  %89 = load i32, ptr %8, align 4, !tbaa !24
  %90 = load ptr, ptr %4, align 8, !tbaa !20
  %91 = call i64 @avio_tell(ptr noundef %90)
  call void (ptr, i32, ptr, ...) @av_log(ptr noundef %88, i32 noundef 16, ptr noundef @.str.32, i32 noundef %89, i64 noundef %91)
  br label %153

92:                                               ; preds = %81
  %93 = load ptr, ptr %4, align 8, !tbaa !20
  %94 = call i64 @avio_size(ptr noundef %93)
  %95 = load ptr, ptr %4, align 8, !tbaa !20
  %96 = call i64 @avio_tell(ptr noundef %95)
  %97 = sub nsw i64 %94, %96
  %98 = sdiv i64 %97, 14
  %99 = load i32, ptr %7, align 4, !tbaa !24
  %100 = zext i32 %99 to i64
  %101 = icmp slt i64 %98, %100
  br i1 %101, label %102, label %115

102:                                              ; preds = %92
  %103 = load ptr, ptr %3, align 8, !tbaa !18
  %104 = load i32, ptr %8, align 4, !tbaa !24
  %105 = load ptr, ptr %4, align 8, !tbaa !20
  %106 = call i64 @avio_size(ptr noundef %105)
  %107 = load ptr, ptr %4, align 8, !tbaa !20
  %108 = call i64 @avio_tell(ptr noundef %107)
  %109 = load ptr, ptr %4, align 8, !tbaa !20
  %110 = call i64 @avio_size(ptr noundef %109)
  %111 = load ptr, ptr %4, align 8, !tbaa !20
  %112 = call i64 @avio_tell(ptr noundef %111)
  %113 = sub nsw i64 %110, %112
  %114 = sdiv i64 %113, 14
  call void (ptr, i32, ptr, ...) @av_log(ptr noundef %103, i32 noundef 16, ptr noundef @.str.33, i32 noundef %104, i64 noundef %106, i64 noundef %108, i64 noundef %114)
  br label %153

115:                                              ; preds = %92
  br label %116

116:                                              ; preds = %115
  store i32 0, ptr %10, align 4, !tbaa !24
  br label %117

117:                                              ; preds = %149, %116
  %118 = load i32, ptr %10, align 4, !tbaa !24
  %119 = load i32, ptr %7, align 4, !tbaa !24
  %120 = icmp ult i32 %118, %119
  br i1 %120, label %121, label %152

121:                                              ; preds = %117
  %122 = load ptr, ptr %4, align 8, !tbaa !20
  %123 = call i32 @avio_feof(ptr noundef %122)
  %124 = icmp ne i32 %123, 0
  br i1 %124, label %125, label %126

125:                                              ; preds = %121
  store i32 -1094995529, ptr %2, align 4
  store i32 1, ptr %14, align 4
  br label %175

126:                                              ; preds = %121
  %127 = load ptr, ptr %4, align 8, !tbaa !20
  %128 = call i64 @avio_skip(ptr noundef %127, i64 noundef 2)
  %129 = load ptr, ptr %4, align 8, !tbaa !20
  %130 = call i32 @avio_rb32(ptr noundef %129)
  store i32 %130, ptr %11, align 4, !tbaa !24
  %131 = load i32, ptr %6, align 4, !tbaa !24
  %132 = icmp eq i32 %131, 0
  br i1 %132, label %133, label %137

133:                                              ; preds = %126
  %134 = load ptr, ptr %4, align 8, !tbaa !20
  %135 = call i32 @avio_rb32(ptr noundef %134)
  %136 = zext i32 %135 to i64
  br label %140

137:                                              ; preds = %126
  %138 = load ptr, ptr %4, align 8, !tbaa !20
  %139 = call i64 @avio_rb64(ptr noundef %138)
  br label %140

140:                                              ; preds = %137, %133
  %141 = phi i64 [ %136, %133 ], [ %139, %137 ]
  store i64 %141, ptr %12, align 8, !tbaa !34
  %142 = load ptr, ptr %4, align 8, !tbaa !20
  %143 = call i64 @avio_skip(ptr noundef %142, i64 noundef 4)
  %144 = load ptr, ptr %13, align 8, !tbaa !22
  %145 = load i64, ptr %12, align 8, !tbaa !34
  %146 = load i32, ptr %11, align 4, !tbaa !24
  %147 = zext i32 %146 to i64
  %148 = call i32 @av_add_index_entry(ptr noundef %144, i64 noundef %145, i64 noundef %147, i32 noundef 0, i32 noundef 0, i32 noundef 1)
  br label %149

149:                                              ; preds = %140
  %150 = load i32, ptr %10, align 4, !tbaa !24
  %151 = add i32 %150, 1
  store i32 %151, ptr %10, align 4, !tbaa !24
  br label %117, !llvm.loop !147

152:                                              ; preds = %117
  br label %153

153:                                              ; preds = %152, %102, %87
  %154 = load i32, ptr %9, align 4, !tbaa !24
  %155 = icmp ne i32 %154, 0
  br i1 %155, label %156, label %170

156:                                              ; preds = %153
  %157 = load ptr, ptr %4, align 8, !tbaa !20
  %158 = call i64 @avio_tell(ptr noundef %157)
  %159 = load i32, ptr %9, align 4, !tbaa !24
  %160 = zext i32 %159 to i64
  %161 = icmp slt i64 %158, %160
  br i1 %161, label %162, label %170

162:                                              ; preds = %156
  %163 = load ptr, ptr %4, align 8, !tbaa !20
  %164 = load i32, ptr %9, align 4, !tbaa !24
  %165 = zext i32 %164 to i64
  %166 = call i64 @avio_seek(ptr noundef %163, i64 noundef %165, i32 noundef 0)
  %167 = icmp slt i64 %166, 0
  br i1 %167, label %168, label %170

168:                                              ; preds = %162
  %169 = load ptr, ptr %3, align 8, !tbaa !18
  call void (ptr, i32, ptr, ...) @av_log(ptr noundef %169, i32 noundef 16, ptr noundef @.str.34)
  store i32 -1, ptr %2, align 4
  store i32 1, ptr %14, align 4
  br label %175

170:                                              ; preds = %162, %156, %153
  br label %171

171:                                              ; preds = %170
  %172 = load i32, ptr %9, align 4, !tbaa !24
  %173 = icmp ne i32 %172, 0
  br i1 %173, label %18, label %174, !llvm.loop !148

174:                                              ; preds = %171
  store i32 0, ptr %2, align 4
  store i32 1, ptr %14, align 4
  br label %175

175:                                              ; preds = %174, %168, %125, %37, %28, %22
  call void @llvm.lifetime.end.p0(i64 8, ptr %13) #10
  call void @llvm.lifetime.end.p0(i64 8, ptr %12) #10
  call void @llvm.lifetime.end.p0(i64 4, ptr %11) #10
  call void @llvm.lifetime.end.p0(i64 4, ptr %10) #10
  call void @llvm.lifetime.end.p0(i64 4, ptr %9) #10
  call void @llvm.lifetime.end.p0(i64 4, ptr %8) #10
  call void @llvm.lifetime.end.p0(i64 4, ptr %7) #10
  call void @llvm.lifetime.end.p0(i64 4, ptr %6) #10
  call void @llvm.lifetime.end.p0(i64 4, ptr %5) #10
  call void @llvm.lifetime.end.p0(i64 8, ptr %4) #10
  %176 = load i32, ptr %2, align 4
  ret i32 %176
}