; Function Attrs: nounwind uwtable
define internal fastcc void @rm_read_index(ptr noundef %0) unnamed_addr #0 {
  %2 = getelementptr inbounds nuw i8, ptr %0, i64 32
  %3 = load ptr, ptr %2, align 8, !tbaa !98
  %4 = tail call i32 @avio_rl32(ptr noundef %3) #12
  %.not72 = icmp eq i32 %4, 1480871497
  br i1 %.not72, label %.lr.ph75, label %.critedge

.lr.ph75:                                         ; preds = %1
  %5 = getelementptr inbounds nuw i8, ptr %0, i64 48
  %6 = getelementptr inbounds nuw i8, ptr %0, i64 44
  br label %7

7:                                                ; preds = %.lr.ph75, %75
  %.073 = phi ptr [ undef, %.lr.ph75 ], [ %.194, %75 ]
  %8 = tail call i32 @avio_rb32(ptr noundef %3) #12
  %9 = icmp ult i32 %8, 20
  br i1 %9, label %.critedge, label %10

10:                                               ; preds = %7
  %11 = tail call i32 @avio_rb16(ptr noundef %3) #12
  %.fr85 = freeze i32 %11
  %12 = and i32 %.fr85, -3
  %or.cond.not = icmp eq i32 %12, 0
  br i1 %or.cond.not, label %13, label %.critedge

13:                                               ; preds = %10
  %14 = tail call i32 @avio_rb32(ptr noundef %3) #12
  %15 = tail call i32 @avio_rb16(ptr noundef %3) #12
  %16 = tail call i32 @avio_rb32(ptr noundef %3) #12
  %17 = icmp eq i32 %.fr85, 2
  br i1 %17, label %18, label %20

18:                                               ; preds = %13
  %19 = tail call i64 @avio_skip(ptr noundef %3, i64 noundef 4) #12
  br label %20

20:                                               ; preds = %18, %13
  %21 = load i32, ptr %6, align 4, !tbaa !112
  %.not83 = icmp eq i32 %21, 0
  br i1 %.not83, label %._crit_edge, label %.lr.ph

.lr.ph:                                           ; preds = %20
  %22 = load ptr, ptr %5, align 8, !tbaa !107
  %wide.trip.count = zext i32 %21 to i64
  br label %23

23:                                               ; preds = %.lr.ph, %29
  %indvars.iv = phi i64 [ 0, %.lr.ph ], [ %indvars.iv.next, %29 ]
  %24 = getelementptr inbounds nuw ptr, ptr %22, i64 %indvars.iv
  %25 = load ptr, ptr %24, align 8, !tbaa !108
  %26 = getelementptr inbounds nuw i8, ptr %25, i64 12
  %27 = load i32, ptr %26, align 4, !tbaa !72
  %28 = icmp eq i32 %27, %15
  br i1 %28, label %._crit_edge.loopexit, label %29

29:                                               ; preds = %23
  %indvars.iv.next = add nuw nsw i64 %indvars.iv, 1
  %exitcond.not = icmp eq i64 %indvars.iv.next, %wide.trip.count
  br i1 %exitcond.not, label %._crit_edge.thread, label %23, !llvm.loop !123

._crit_edge.loopexit:                             ; preds = %23
  %30 = trunc nuw i64 %indvars.iv to i32
  br label %._crit_edge

._crit_edge:                                      ; preds = %._crit_edge.loopexit, %20
  %.056.lcssa = phi i32 [ 0, %20 ], [ %30, %._crit_edge.loopexit ]
  %.1 = phi ptr [ %.073, %20 ], [ %25, %._crit_edge.loopexit ]
  %31 = icmp eq i32 %.056.lcssa, %21
  br i1 %31, label %._crit_edge.thread, label %33

._crit_edge.thread:                               ; preds = %29, %._crit_edge
  %.195 = phi ptr [ %.1, %._crit_edge ], [ %.073, %29 ]
  %32 = tail call i64 @avio_seek(ptr noundef %3, i64 noundef 0, i32 noundef 1) #12
  tail call void (ptr, i32, ptr, ...) @av_log(ptr noundef nonnull %0, i32 noundef 16, ptr noundef nonnull @.str.32, i32 noundef %15, i64 noundef %32) #12
  br label %.loopexit

33:                                               ; preds = %._crit_edge
  %34 = tail call i64 @avio_size(ptr noundef %3) #12
  %35 = tail call i64 @avio_seek(ptr noundef %3, i64 noundef 0, i32 noundef 1) #12
  %36 = sub nsw i64 %34, %35
  %37 = sdiv i64 %36, 14
  %38 = zext i32 %14 to i64
  %39 = icmp slt i64 %37, %38
  br i1 %39, label %51, label %.preheader

.preheader:                                       ; preds = %33
  %.not84 = icmp eq i32 %14, 0
  br i1 %.not84, label %.loopexit, label %.lr.ph71

.lr.ph71:                                         ; preds = %.preheader
  %40 = icmp eq i32 %.fr85, 0
  br i1 %40, label %.lr.ph71.split.us, label %.lr.ph71.split

.lr.ph71.split.us:                                ; preds = %.lr.ph71, %42
  %.15770.us = phi i32 [ %50, %42 ], [ 0, %.lr.ph71 ]
  %41 = tail call i32 @avio_feof(ptr noundef %3) #12
  %.not60.us = icmp eq i32 %41, 0
  br i1 %.not60.us, label %42, label %.critedge

42:                                               ; preds = %.lr.ph71.split.us
  %43 = tail call i64 @avio_skip(ptr noundef %3, i64 noundef 2) #12
  %44 = tail call i32 @avio_rb32(ptr noundef %3) #12
  %45 = tail call i32 @avio_rb32(ptr noundef %3) #12
  %46 = zext i32 %45 to i64
  %47 = tail call i64 @avio_skip(ptr noundef %3, i64 noundef 4) #12
  %48 = zext i32 %44 to i64
  %49 = tail call i32 @av_add_index_entry(ptr noundef %.1, i64 noundef %46, i64 noundef %48, i32 noundef 0, i32 noundef 0, i32 noundef 1) #12
  %50 = add nuw i32 %.15770.us, 1
  %exitcond91.not = icmp eq i32 %50, %14
  br i1 %exitcond91.not, label %.loopexit, label %.lr.ph71.split.us, !llvm.loop !124

51:                                               ; preds = %33
  %52 = tail call i64 @avio_size(ptr noundef %3) #12
  %53 = tail call i64 @avio_seek(ptr noundef %3, i64 noundef 0, i32 noundef 1) #12
  %54 = tail call i64 @avio_size(ptr noundef %3) #12
  %55 = tail call i64 @avio_seek(ptr noundef %3, i64 noundef 0, i32 noundef 1) #12
  %56 = sub nsw i64 %54, %55
  %57 = sdiv i64 %56, 14
  tail call void (ptr, i32, ptr, ...) @av_log(ptr noundef nonnull %0, i32 noundef 16, ptr noundef nonnull @.str.33, i32 noundef %15, i64 noundef %52, i64 noundef %53, i64 noundef %57) #12
  br label %.loopexit

.lr.ph71.split:                                   ; preds = %.lr.ph71, %59
  %.15770 = phi i32 [ %66, %59 ], [ 0, %.lr.ph71 ]
  %58 = tail call i32 @avio_feof(ptr noundef %3) #12
  %.not60 = icmp eq i32 %58, 0
  br i1 %.not60, label %59, label %.critedge

59:                                               ; preds = %.lr.ph71.split
  %60 = tail call i64 @avio_skip(ptr noundef %3, i64 noundef 2) #12
  %61 = tail call i32 @avio_rb32(ptr noundef %3) #12
  %62 = tail call i64 @avio_rb64(ptr noundef %3) #12
  %63 = tail call i64 @avio_skip(ptr noundef %3, i64 noundef 4) #12
  %64 = zext i32 %61 to i64
  %65 = tail call i32 @av_add_index_entry(ptr noundef %.1, i64 noundef %62, i64 noundef %64, i32 noundef 0, i32 noundef 0, i32 noundef 1) #12
  %66 = add nuw i32 %.15770, 1
  %exitcond90.not = icmp eq i32 %66, %14
  br i1 %exitcond90.not, label %.loopexit, label %.lr.ph71.split, !llvm.loop !124

.loopexit:                                        ; preds = %59, %42, %.preheader, %51, %._crit_edge.thread
  %.194 = phi ptr [ %.1, %.preheader ], [ %.1, %51 ], [ %.195, %._crit_edge.thread ], [ %.1, %42 ], [ %.1, %59 ]
  %.not61 = icmp eq i32 %16, 0
  br i1 %.not61, label %.critedge, label %67

67:                                               ; preds = %.loopexit
  %68 = tail call i64 @avio_seek(ptr noundef %3, i64 noundef 0, i32 noundef 1) #12
  %69 = zext i32 %16 to i64
  %70 = icmp slt i64 %68, %69
  br i1 %70, label %71, label %75

71:                                               ; preds = %67
  %72 = tail call i64 @avio_seek(ptr noundef %3, i64 noundef %69, i32 noundef 0) #12
  %73 = icmp slt i64 %72, 0
  br i1 %73, label %74, label %75

74:                                               ; preds = %71
  tail call void (ptr, i32, ptr, ...) @av_log(ptr noundef %0, i32 noundef 16, ptr noundef nonnull @.str.34) #12
  br label %.critedge

75:                                               ; preds = %67, %71
  %76 = tail call i32 @avio_rl32(ptr noundef %3) #12
  %.not = icmp eq i32 %76, 1480871497
  br i1 %.not, label %7, label %.critedge, !llvm.loop !125

.critedge:                                        ; preds = %75, %7, %10, %.loopexit, %.lr.ph71.split, %.lr.ph71.split.us, %1, %74
  ret void
}